; Function Attrs: nounwind uwtable
define range(i32 -6, 1) i32 @arkLSSetMassUserData(ptr noundef %0, ptr noundef %1) local_unnamed_addr #0 {
  %3 = getelementptr inbounds nuw i8, ptr %0, i64 536
  %4 = load ptr, ptr %3, align 8, !tbaa !75
  %5 = tail call ptr %4(ptr noundef %0) #13
  %6 = icmp eq ptr %5, null
  br i1 %6, label %arkLs_AccessMassMem.exit, label %7

arkLs_AccessMassMem.exit:                         ; preds = %2
  tail call void (ptr, i32, i32, ptr, ptr, ptr, ...) @arkProcessError(ptr noundef nonnull %0, i32 noundef -6, i32 noundef 4109, ptr noundef nonnull @__func__.arkLSSetMassUserData, ptr noundef nonnull @.str, ptr noundef nonnull @.str.65) #13
  br label %14

7:                                                ; preds = %2
  %8 = getelementptr inbounds nuw i8, ptr %5, i64 8
  %9 = load ptr, ptr %8, align 8, !tbaa !116
  %.not6 = icmp eq ptr %9, null
  br i1 %.not6, label %12, label %10

10:                                               ; preds = %7
  %11 = getelementptr inbounds nuw i8, ptr %5, i64 32
  store ptr %1, ptr %11, align 8, !tbaa !127
  br label %12

12:                                               ; preds = %10, %7
  %13 = getelementptr inbounds nuw i8, ptr %5, i64 192
  store ptr %1, ptr %13, align 8, !tbaa !110
  br label %14

14:                                               ; preds = %arkLs_AccessMassMem.exit, %12
  %.0 = phi i32 [ 0, %12 ], [ -6, %arkLs_AccessMassMem.exit ]
  ret i32 %.0
}